; Function Attrs: nounwind uwtable
define void @OSSL_ERR_STATE_free(ptr noundef %0) local_unnamed_addr #0 {
  %2 = icmp eq ptr %0, null
  br i1 %2, label %28, label %.preheader

.preheader:                                       ; preds = %1
  %3 = getelementptr inbounds nuw i8, ptr %0, i64 512
  %4 = getelementptr inbounds nuw i8, ptr %0, i64 256
  %5 = getelementptr inbounds nuw i8, ptr %0, i64 384
  %6 = getelementptr inbounds nuw i8, ptr %0, i64 64
  %7 = getelementptr inbounds nuw i8, ptr %0, i64 128
  %8 = getelementptr inbounds nuw i8, ptr %0, i64 704
  %9 = getelementptr inbounds nuw i8, ptr %0, i64 576
  %10 = getelementptr inbounds nuw i8, ptr %0, i64 768
  br label %11

11:                                               ; preds = %.preheader, %err_clear.exit
  %indvars.iv = phi i64 [ 0, %.preheader ], [ %indvars.iv.next, %err_clear.exit ]
  %12 = getelementptr inbounds nuw [16 x i32], ptr %3, i64 0, i64 %indvars.iv
  %13 = load i32, ptr %12, align 4, !tbaa !3
  %14 = and i32 %13, 1
  %.not.i.i = icmp eq i32 %14, 0
  %15 = getelementptr inbounds nuw [16 x ptr], ptr %4, i64 0, i64 %indvars.iv
  br i1 %.not.i.i, label %err_clear.exit, label %16

16:                                               ; preds = %11
  %17 = load ptr, ptr %15, align 8, !tbaa !7
  tail call void @CRYPTO_free(ptr noundef %17, ptr noundef nonnull @.str.7, i32 noundef 25) #10
  br label %err_clear.exit

err_clear.exit:                                   ; preds = %11, %16
  store ptr null, ptr %15, align 8, !tbaa !7
  %18 = getelementptr inbounds nuw [16 x i64], ptr %5, i64 0, i64 %indvars.iv
  store i64 0, ptr %18, align 8, !tbaa !10
  store i32 0, ptr %12, align 4, !tbaa !3
  %19 = getelementptr inbounds nuw [16 x i32], ptr %6, i64 0, i64 %indvars.iv
  store i32 0, ptr %19, align 4, !tbaa !3
  %20 = getelementptr inbounds nuw [16 x i32], ptr %0, i64 0, i64 %indvars.iv
  store i32 0, ptr %20, align 4, !tbaa !3
  %21 = getelementptr inbounds nuw [16 x i64], ptr %7, i64 0, i64 %indvars.iv
  store i64 0, ptr %21, align 8, !tbaa !10
  %22 = getelementptr inbounds nuw [16 x i32], ptr %8, i64 0, i64 %indvars.iv
  store i32 -1, ptr %22, align 4, !tbaa !3
  %23 = getelementptr inbounds nuw [16 x ptr], ptr %9, i64 0, i64 %indvars.iv
  %24 = load ptr, ptr %23, align 8, !tbaa !7
  tail call void @CRYPTO_free(ptr noundef %24, ptr noundef nonnull @.str.7, i32 noundef 91) #10
  store ptr null, ptr %23, align 8, !tbaa !7
  %25 = getelementptr inbounds nuw [16 x ptr], ptr %10, i64 0, i64 %indvars.iv
  %26 = load ptr, ptr %25, align 8, !tbaa !7
  tail call void @CRYPTO_free(ptr noundef %26, ptr noundef nonnull @.str.7, i32 noundef 93) #10
  store ptr null, ptr %25, align 8, !tbaa !7
  %indvars.iv.next = add nuw nsw i64 %indvars.iv, 1
  %exitcond.not = icmp eq i64 %indvars.iv.next, 16
  br i1 %exitcond.not, label %27, label %11, !llvm.loop !12

27:                                               ; preds = %err_clear.exit
  tail call void @CRYPTO_free(ptr noundef nonnull %0, ptr noundef nonnull @.str, i32 noundef 210) #10
  br label %28

28:                                               ; preds = %1, %27
  ret void
}